; ModuleID = '39/234.c'
source_filename = "39/234.c"
target datalayout = "e-m:e-p270:32:32-p271:32:32-p272:64:64-i64:64-f80:128-n8:16:32:64-S128"
target triple = "x86_64-pc-linux-gnu"

%struct.award = type { [20 x i8], i32, i32, i8, i8, i32, i32 }

@.str = private unnamed_addr constant [4 x i8] c"%d\0A\00", align 1
@.str.1 = private unnamed_addr constant [18 x i8] c"%s %d %d %c %c %d\00", align 1

; Function Attrs: noinline nounwind uwtable
define dso_local i32 @main() #0 {
  %1 = alloca i32, align 4
  %2 = alloca [100 x %struct.award], align 16
  %3 = alloca %struct.award, align 4
  %4 = alloca i32, align 4
  %5 = alloca i32, align 4
  %6 = alloca i32, align 4
  store i32 0, i32* %1, align 4
  store i32 0, i32* %6, align 4
  %7 = call i32 (i8*, ...) @__isoc99_scanf(i8* getelementptr inbounds ([4 x i8], [4 x i8]* @.str, i64 0, i64 0), i32* %4)
  store i32 0, i32* %5, align 4
  br label %8

8:                                                ; preds = %39, %0
  %9 = load i32, i32* %5, align 4
  %10 = load i32, i32* %4, align 4
  %11 = icmp slt i32 %9, %10
  br i1 %11, label %12, label %42

12:                                               ; preds = %8
  %13 = load i32, i32* %5, align 4
  %14 = sext i32 %13 to i64
  %15 = getelementptr inbounds [100 x %struct.award], [100 x %struct.award]* %2, i64 0, i64 %14
  %16 = getelementptr inbounds %struct.award, %struct.award* %15, i32 0, i32 0
  %17 = getelementptr inbounds [20 x i8], [20 x i8]* %16, i64 0, i64 0
  %18 = load i32, i32* %5, align 4
  %19 = sext i32 %18 to i64
  %20 = getelementptr inbounds [100 x %struct.award], [100 x %struct.award]* %2, i64 0, i64 %19
  %21 = getelementptr inbounds %struct.award, %struct.award* %20, i32 0, i32 1
  %22 = load i32, i32* %5, align 4
  %23 = sext i32 %22 to i64
  %24 = getelementptr inbounds [100 x %struct.award], [100 x %struct.award]* %2, i64 0, i64 %23
  %25 = getelementptr inbounds %struct.award, %struct.award* %24, i32 0, i32 2
  %26 = load i32, i32* %5, align 4
  %27 = sext i32 %26 to i64
  %28 = getelementptr inbounds [100 x %struct.award], [100 x %struct.award]* %2, i64 0, i64 %27
  %29 = getelementptr inbounds %struct.award, %struct.award* %28, i32 0, i32 3
  %30 = load i32, i32* %5, align 4
  %31 = sext i32 %30 to i64
  %32 = getelementptr inbounds [100 x %struct.award], [100 x %struct.award]* %2, i64 0, i64 %31
  %33 = getelementptr inbounds %struct.award, %struct.award* %32, i32 0, i32 4
  %34 = load i32, i32* %5, align 4
  %35 = sext i32 %34 to i64
  %36 = getelementptr inbounds [100 x %struct.award], [100 x %struct.award]* %2, i64 0, i64 %35
  %37 = getelementptr inbounds %struct.award, %struct.award* %36, i32 0, i32 5
  %38 = call i32 (i8*, ...) @__isoc99_scanf(i8* getelementptr inbounds ([18 x i8], [18 x i8]* @.str.1, i64 0, i64 0), i8* %17, i32* %21, i32* %25, i8* %29, i8* %33, i32* %37)
  br label %39

39:                                               ; preds = %12
  %40 = load i32, i32* %5, align 4
  %41 = add nsw i32 %40, 1
  store i32 %41, i32* %5, align 4
  br label %8

42:                                               ; preds = %8
  store i32 0, i32* %5, align 4
  br label %43

43:                                               ; preds = %159, %42
  %44 = load i32, i32* %5, align 4
  %45 = load i32, i32* %4, align 4
  %46 = icmp slt i32 %44, %45
  br i1 %46, label %47, label %162

47:                                               ; preds = %43
  %48 = load i32, i32* %5, align 4
  %49 = sext i32 %48 to i64
  %50 = getelementptr inbounds [100 x %struct.award], [100 x %struct.award]* %2, i64 0, i64 %49
  %51 = getelementptr inbounds %struct.award, %struct.award* %50, i32 0, i32 6
  store i32 0, i32* %51, align 4
  %52 = load i32, i32* %5, align 4
  %53 = sext i32 %52 to i64
  %54 = getelementptr inbounds [100 x %struct.award], [100 x %struct.award]* %2, i64 0, i64 %53
  %55 = getelementptr inbounds %struct.award, %struct.award* %54, i32 0, i32 1
  %56 = load i32, i32* %55, align 4
  %57 = icmp sgt i32 %56, 80
  br i1 %57, label %58, label %72

58:                                               ; preds = %47
  %59 = load i32, i32* %5, align 4
  %60 = sext i32 %59 to i64
  %61 = getelementptr inbounds [100 x %struct.award], [100 x %struct.award]* %2, i64 0, i64 %60
  %62 = getelementptr inbounds %struct.award, %struct.award* %61, i32 0, i32 5
  %63 = load i32, i32* %62, align 8
  %64 = icmp sgt i32 %63, 0
  br i1 %64, label %65, label %72

65:                                               ; preds = %58
  %66 = load i32, i32* %5, align 4
  %67 = sext i32 %66 to i64
  %68 = getelementptr inbounds [100 x %struct.award], [100 x %struct.award]* %2, i64 0, i64 %67
  %69 = getelementptr inbounds %struct.award, %struct.award* %68, i32 0, i32 6
  %70 = load i32, i32* %69, align 4
  %71 = add nsw i32 %70, 8000
  store i32 %71, i32* %69, align 4
  br label %72

72:                                               ; preds = %65, %58, %47
  %73 = load i32, i32* %5, align 4
  %74 = sext i32 %73 to i64
  %75 = getelementptr inbounds [100 x %struct.award], [100 x %struct.award]* %2, i64 0, i64 %74
  %76 = getelementptr inbounds %struct.award, %struct.award* %75, i32 0, i32 1
  %77 = load i32, i32* %76, align 4
  %78 = icmp sgt i32 %77, 85
  br i1 %78, label %79, label %93

79:                                               ; preds = %72
  %80 = load i32, i32* %5, align 4
  %81 = sext i32 %80 to i64
  %82 = getelementptr inbounds [100 x %struct.award], [100 x %struct.award]* %2, i64 0, i64 %81
  %83 = getelementptr inbounds %struct.award, %struct.award* %82, i32 0, i32 2
  %84 = load i32, i32* %83, align 8
  %85 = icmp sgt i32 %84, 80
  br i1 %85, label %86, label %93

86:                                               ; preds = %79
  %87 = load i32, i32* %5, align 4
  %88 = sext i32 %87 to i64
  %89 = getelementptr inbounds [100 x %struct.award], [100 x %struct.award]* %2, i64 0, i64 %88
  %90 = getelementptr inbounds %struct.award, %struct.award* %89, i32 0, i32 6
  %91 = load i32, i32* %90, align 4
  %92 = add nsw i32 %91, 4000
  store i32 %92, i32* %90, align 4
  br label %93

93:                                               ; preds = %86, %79, %72
  %94 = load i32, i32* %5, align 4
  %95 = sext i32 %94 to i64
  %96 = getelementptr inbounds [100 x %struct.award], [100 x %struct.award]* %2, i64 0, i64 %95
  %97 = getelementptr inbounds %struct.award, %struct.award* %96, i32 0, i32 1
  %98 = load i32, i32* %97, align 4
  %99 = icmp sgt i32 %98, 90
  br i1 %99, label %100, label %107

100:                                              ; preds = %93
  %101 = load i32, i32* %5, align 4
  %102 = sext i32 %101 to i64
  %103 = getelementptr inbounds [100 x %struct.award], [100 x %struct.award]* %2, i64 0, i64 %102
  %104 = getelementptr inbounds %struct.award, %struct.award* %103, i32 0, i32 6
  %105 = load i32, i32* %104, align 4
  %106 = add nsw i32 %105, 2000
  store i32 %106, i32* %104, align 4
  br label %107

107:                                              ; preds = %100, %93
  %108 = load i32, i32* %5, align 4
  %109 = sext i32 %108 to i64
  %110 = getelementptr inbounds [100 x %struct.award], [100 x %struct.award]* %2, i64 0, i64 %109
  %111 = getelementptr inbounds %struct.award, %struct.award* %110, i32 0, i32 1
  %112 = load i32, i32* %111, align 4
  %113 = icmp sgt i32 %112, 85
  br i1 %113, label %114, label %129

114:                                              ; preds = %107
  %115 = load i32, i32* %5, align 4
  %116 = sext i32 %115 to i64
  %117 = getelementptr inbounds [100 x %struct.award], [100 x %struct.award]* %2, i64 0, i64 %116
  %118 = getelementptr inbounds %struct.award, %struct.award* %117, i32 0, i32 4
  %119 = load i8, i8* %118, align 1
  %120 = sext i8 %119 to i32
  %121 = icmp eq i32 %120, 89
  br i1 %121, label %122, label %129

122:                                              ; preds = %114
  %123 = load i32, i32* %5, align 4
  %124 = sext i32 %123 to i64
  %125 = getelementptr inbounds [100 x %struct.award], [100 x %struct.award]* %2, i64 0, i64 %124
  %126 = getelementptr inbounds %struct.award, %struct.award* %125, i32 0, i32 6
  %127 = load i32, i32* %126, align 4
  %128 = add nsw i32 %127, 1000
  store i32 %128, i32* %126, align 4
  br label %129

129:                                              ; preds = %122, %114, %107
  %130 = load i32, i32* %5, align 4
  %131 = sext i32 %130 to i64
  %132 = getelementptr inbounds [100 x %struct.award], [100 x %struct.award]* %2, i64 0, i64 %131
  %133 = getelementptr inbounds %struct.award, %struct.award* %132, i32 0, i32 2
  %134 = load i32, i32* %133, align 8
  %135 = icmp sgt i32 %134, 80
  br i1 %135, label %136, label %151

136:                                              ; preds = %129
  %137 = load i32, i32* %5, align 4
  %138 = sext i32 %137 to i64
  %139 = getelementptr inbounds [100 x %struct.award], [100 x %struct.award]* %2, i64 0, i64 %138
  %140 = getelementptr inbounds %struct.award, %struct.award* %139, i32 0, i32 3
  %141 = load i8, i8* %140, align 4
  %142 = sext i8 %141 to i32
  %143 = icmp eq i32 %142, 89
  br i1 %143, label %144, label %151

144:                                              ; preds = %136
  %145 = load i32, i32* %5, align 4
  %146 = sext i32 %145 to i64
  %147 = getelementptr inbounds [100 x %struct.award], [100 x %struct.award]* %2, i64 0, i64 %146
  %148 = getelementptr inbounds %struct.award, %struct.award* %147, i32 0, i32 6
  %149 = load i32, i32* %148, align 4
  %150 = add nsw i32 %149, 850
  store i32 %150, i32* %148, align 4
  br label %151

151:                                              ; preds = %144, %136, %129
  %152 = load i32, i32* %5, align 4
  %153 = sext i32 %152 to i64
  %154 = getelementptr inbounds [100 x %struct.award], [100 x %struct.award]* %2, i64 0, i64 %153
  %155 = getelementptr inbounds %struct.award, %struct.award* %154, i32 0, i32 6
  %156 = load i32, i32* %155, align 4
  %157 = load i32, i32* %6, align 4
  %158 = add nsw i32 %157, %156
  store i32 %158, i32* %6, align 4
  br label %159

159:                                              ; preds = %151
  %160 = load i32, i32* %5, align 4
  %161 = add nsw i32 %160, 1
  store i32 %161, i32* %5, align 4
  br label %43

162:                                              ; preds = %43
  %163 = getelementptr inbounds [100 x %struct.award], [100 x %struct.award]* %2, i64 0, i64 0
  %164 = bitcast %struct.award* %3 to i8*
  %165 = bitcast %struct.award* %163 to i8*
  call void @llvm.memcpy.p0i8.p0i8.i64(i8* align 4 %164, i8* align 16 %165, i64 40, i1 false)
  store i32 1, i32* %5, align 4
  br label %166

166:                                              ; preds = %186, %162
  %167 = load i32, i32* %5, align 4
  %168 = load i32, i32* %4, align 4
  %169 = icmp slt i32 %167, %168
  br i1 %169, label %170, label %189

170:                                              ; preds = %166
  %171 = load i32, i32* %5, align 4
  %172 = sext i32 %171 to i64
  %173 = getelementptr inbounds [100 x %struct.award], [100 x %struct.award]* %2, i64 0, i64 %172
  %174 = getelementptr inbounds %struct.award, %struct.award* %173, i32 0, i32 6
  %175 = load i32, i32* %174, align 4
  %176 = getelementptr inbounds %struct.award, %struct.award* %3, i32 0, i32 6
  %177 = load i32, i32* %176, align 4
  %178 = icmp sgt i32 %175, %177
  br i1 %178, label %179, label %185

179:                                              ; preds = %170
  %180 = load i32, i32* %5, align 4
  %181 = sext i32 %180 to i64
  %182 = getelementptr inbounds [100 x %struct.award], [100 x %struct.award]* %2, i64 0, i64 %181
  %183 = bitcast %struct.award* %3 to i8*
  %184 = bitcast %struct.award* %182 to i8*
  call void @llvm.memcpy.p0i8.p0i8.i64(i8* align 4 %183, i8* align 8 %184, i64 40, i1 false)
  br label %185

185:                                              ; preds = %179, %170
  br label %186

186:                                              ; preds = %185
  %187 = load i32, i32* %5, align 4
  %188 = add nsw i32 %187, 1
  store i32 %188, i32* %5, align 4
  br label %166

189:                                              ; preds = %166
  %190 = getelementptr inbounds %struct.award, %struct.award* %3, i32 0, i32 0
  %191 = getelementptr inbounds [20 x i8], [20 x i8]* %190, i64 0, i64 0
  %192 = call i32 @puts(i8* %191)
  %193 = getelementptr inbounds %struct.award, %struct.award* %3, i32 0, i32 6
  %194 = load i32, i32* %193, align 4
  %195 = call i32 (i8*, ...) @printf(i8* getelementptr inbounds ([4 x i8], [4 x i8]* @.str, i64 0, i64 0), i32 %194)
  %196 = load i32, i32* %6, align 4
  %197 = call i32 (i8*, ...) @printf(i8* getelementptr inbounds ([4 x i8], [4 x i8]* @.str, i64 0, i64 0), i32 %196)
  ret i32 0
}

declare dso_local i32 @__isoc99_scanf(i8*, ...) #1

; Function Attrs: argmemonly nounwind willreturn
declare void @llvm.memcpy.p0i8.p0i8.i64(i8* noalias nocapture writeonly, i8* noalias nocapture readonly, i64, i1 immarg) #2

declare dso_local i32 @puts(i8*) #1

declare dso_local i32 @printf(i8*, ...) #1


!llvm.module.flags = !{!0}
!llvm.ident = !{!1}

!0 = !{i32 1, !"wchar_size", i32 4}
!1 = !{!"clang version 10.0.0-4ubuntu1 "}
